target datalayout = "e-m:e-p270:32:32-p271:32:32-p272:64:64-i64:64-i128:128-f80:128-n8:16:32:64-S128"
target triple = "x86_64-pc-linux-gnu"

%struct.png_info_def = type { i32, i32, i32, i64, ptr, i16, i16, i8, i8, i8, i8, i8, i8, i8, i8, [8 x i8], %struct.png_colorspace, ptr, ptr, i32, i32, i32, ptr, %struct.png_time_struct, %struct.png_color_8_struct, ptr, %struct.png_color_16_struct, %struct.png_color_16_struct, i32, i32, i8, i32, i32, i8, i32, ptr, ptr, ptr, ptr, i32, i32, ptr, ptr, i8, i8, i32, ptr, i32, ptr, i32, i8, ptr, ptr, ptr }
%struct.png_colorspace = type { i32, %struct.png_xy, %struct.png_XYZ, i16, i16 }
%struct.png_xy = type { i32, i32, i32, i32, i32, i32, i32, i32 }
%struct.png_XYZ = type { i32, i32, i32, i32, i32, i32, i32, i32, i32 }
%struct.png_time_struct = type { i16, i8, i8, i8, i8, i8 }
%struct.png_color_8_struct = type { i8, i8, i8, i8, i8 }
%struct.png_color_16_struct = type { i8, i16, i16, i16, i16 }
%struct.png_struct_def = type { [1 x %struct.__jmp_buf_tag], ptr, ptr, i64, ptr, ptr, ptr, ptr, ptr, ptr, ptr, ptr, ptr, i8, i8, i32, i32, i32, i32, %struct.z_stream_s, ptr, i32, i32, i32, i32, i32, i32, i32, i32, i32, i32, i32, i32, i32, i32, i32, i32, i32, i32, i32, i32, i64, i32, i32, i32, ptr, ptr, ptr, ptr, i64, i32, i32, ptr, i16, i32, i16, i8, i8, i8, i8, i8, i8, i8, i8, i8, i8, i8, i8, i8, i8, i8, i16, i8, i32, %struct.png_color_16_struct, %struct.png_color_16_struct, ptr, i32, i32, i32, i32, ptr, ptr, ptr, ptr, ptr, ptr, %struct.png_color_8_struct, %struct.png_color_8_struct, ptr, %struct.png_color_16_struct, ptr, ptr, ptr, ptr, ptr, ptr, ptr, ptr, ptr, i32, i32, i64, i64, i64, i64, i32, i32, ptr, ptr, i32, [29 x i8], i32, ptr, ptr, i32, i32, ptr, i8, i8, i16, i16, ptr, i32, i8, ptr, ptr, ptr, ptr, ptr, ptr, ptr, i8, i32, i32, i32, i64, %struct.png_unknown_chunk_t, i64, ptr, i64, i32, i32, ptr, [4 x ptr], %struct.png_colorspace }
%struct.__jmp_buf_tag = type { [8 x i64], i32, %struct.__sigset_t }
%struct.__sigset_t = type { [16 x i64] }
%struct.z_stream_s = type { ptr, i32, i64, ptr, i32, i64, ptr, ptr, ptr, ptr, ptr, i32, i64, i64 }
%struct.png_unknown_chunk_t = type { [5 x i8], ptr, i64, i8 }

@.str.39 = private unnamed_addr constant [50 x i8] c"tRNS chunk has out-of-range samples for bit_depth\00", align 1

; Function Attrs: nounwind uwtable
define void @png_set_tRNS(ptr noalias noundef %0, ptr noalias noundef %1, ptr noundef %2, i32 noundef %3, ptr noundef %4) #0 {
  %6 = alloca ptr, align 8
  %7 = alloca ptr, align 8
  %8 = alloca ptr, align 8
  %9 = alloca i32, align 4
  %10 = alloca ptr, align 8
  %11 = alloca i32, align 4
  store ptr %0, ptr %6, align 8
  store ptr %1, ptr %7, align 8
  store ptr %2, ptr %8, align 8
  store i32 %3, ptr %9, align 4
  store ptr %4, ptr %10, align 8
  %12 = load ptr, ptr %6, align 8
  %13 = icmp eq ptr %12, null
  br i1 %13, label %17, label %14

14:                                               ; preds = %5
  %15 = load ptr, ptr %7, align 8
  %16 = icmp eq ptr %15, null
  br i1 %16, label %17, label %18

17:                                               ; preds = %14, %5
  br label %136

18:                                               ; preds = %14
  %19 = load ptr, ptr %8, align 8
  %20 = icmp ne ptr %19, null
  br i1 %20, label %21, label %54

21:                                               ; preds = %18
  %22 = load ptr, ptr %6, align 8
  %23 = load ptr, ptr %7, align 8
  call void @png_free_data(ptr noundef %22, ptr noundef %23, i32 noundef 8192, i32 noundef 0)
  %24 = load i32, ptr %9, align 4
  %25 = icmp sgt i32 %24, 0
  br i1 %25, label %26, label %48

26:                                               ; preds = %21
  %27 = load i32, ptr %9, align 4
  %28 = icmp sle i32 %27, 256
  br i1 %28, label %29, label %48

29:                                               ; preds = %26
  %30 = load ptr, ptr %6, align 8
  %31 = call noalias ptr @png_malloc(ptr noundef %30, i64 noundef 256)
  %32 = load ptr, ptr %7, align 8
  %33 = getelementptr inbounds %struct.png_info_def, ptr %32, i32 0, i32 25
  store ptr %31, ptr %33, align 8
  %34 = load ptr, ptr %7, align 8
  %35 = getelementptr inbounds %struct.png_info_def, ptr %34, i32 0, i32 25
  %36 = load ptr, ptr %35, align 8
  %37 = load ptr, ptr %8, align 8
  %38 = load i32, ptr %9, align 4
  %39 = sext i32 %38 to i64
  call void @llvm.memcpy.p0.p0.i64(ptr align 1 %36, ptr align 1 %37, i64 %39, i1 false)
  %40 = load ptr, ptr %7, align 8
  %41 = getelementptr inbounds %struct.png_info_def, ptr %40, i32 0, i32 45
  %42 = load i32, ptr %41, align 4
  %43 = or i32 %42, 8192
  store i32 %43, ptr %41, align 4
  %44 = load ptr, ptr %7, align 8
  %45 = getelementptr inbounds %struct.png_info_def, ptr %44, i32 0, i32 2
  %46 = load i32, ptr %45, align 8
  %47 = or i32 %46, 16
  store i32 %47, ptr %45, align 8
  br label %48

48:                                               ; preds = %29, %26, %21
  %49 = load ptr, ptr %7, align 8
  %50 = getelementptr inbounds %struct.png_info_def, ptr %49, i32 0, i32 25
  %51 = load ptr, ptr %50, align 8
  %52 = load ptr, ptr %6, align 8
  %53 = getelementptr inbounds %struct.png_struct_def, ptr %52, i32 0, i32 89
  store ptr %51, ptr %53, align 8
  br label %54

54:                                               ; preds = %48, %18
  %55 = load ptr, ptr %10, align 8
  %56 = icmp ne ptr %55, null
  br i1 %56, label %57, label %120

57:                                               ; preds = %54
  %58 = load ptr, ptr %7, align 8
  %59 = getelementptr inbounds %struct.png_info_def, ptr %58, i32 0, i32 7
  %60 = load i8, ptr %59, align 4
  %61 = zext i8 %60 to i32
  %62 = icmp slt i32 %61, 16
  br i1 %62, label %63, label %112

63:                                               ; preds = %57
  %64 = load ptr, ptr %7, align 8
  %65 = getelementptr inbounds %struct.png_info_def, ptr %64, i32 0, i32 7
  %66 = load i8, ptr %65, align 4
  %67 = zext i8 %66 to i32
  %68 = shl i32 1, %67
  %69 = sub nsw i32 %68, 1
  store i32 %69, ptr %11, align 4
  %70 = load ptr, ptr %7, align 8
  %71 = getelementptr inbounds %struct.png_info_def, ptr %70, i32 0, i32 8
  %72 = load i8, ptr %71, align 1
  %73 = zext i8 %72 to i32
  %74 = icmp eq i32 %73, 0
  br i1 %74, label %75, label %82

75:                                               ; preds = %63
  %76 = load ptr, ptr %10, align 8
  %77 = getelementptr inbounds %struct.png_color_16_struct, ptr %76, i32 0, i32 4
  %78 = load i16, ptr %77, align 2
  %79 = zext i16 %78 to i32
  %80 = load i32, ptr %11, align 4
  %81 = icmp sgt i32 %79, %80
  br i1 %81, label %109, label %82

82:                                               ; preds = %75, %63
  %83 = load ptr, ptr %7, align 8
  %84 = getelementptr inbounds %struct.png_info_def, ptr %83, i32 0, i32 8
  %85 = load i8, ptr %84, align 1
  %86 = zext i8 %85 to i32
  %87 = icmp eq i32 %86, 2
  br i1 %87, label %88, label %111

88:                                               ; preds = %82
  %89 = load ptr, ptr %10, align 8
  %90 = getelementptr inbounds %struct.png_color_16_struct, ptr %89, i32 0, i32 1
  %91 = load i16, ptr %90, align 2
  %92 = zext i16 %91 to i32
  %93 = load i32, ptr %11, align 4
  %94 = icmp sgt i32 %92, %93
  br i1 %94, label %109, label %95

95:                                               ; preds = %88
  %96 = load ptr, ptr %10, align 8
  %97 = getelementptr inbounds %struct.png_color_16_struct, ptr %96, i32 0, i32 2
  %98 = load i16, ptr %97, align 2
  %99 = zext i16 %98 to i32
  %100 = load i32, ptr %11, align 4
  %101 = icmp sgt i32 %99, %100
  br i1 %101, label %109, label %102

102:                                              ; preds = %95
  %103 = load ptr, ptr %10, align 8
  %104 = getelementptr inbounds %struct.png_color_16_struct, ptr %103, i32 0, i32 3
  %105 = load i16, ptr %104, align 2
  %106 = zext i16 %105 to i32
  %107 = load i32, ptr %11, align 4
  %108 = icmp sgt i32 %106, %107
  br i1 %108, label %109, label %111

109:                                              ; preds = %102, %95, %88, %75
  %110 = load ptr, ptr %6, align 8
  call void @png_warning(ptr noundef %110, ptr noundef @.str.39)
  br label %111

111:                                              ; preds = %109, %102, %82
  br label %112

112:                                              ; preds = %111, %57
  %113 = load ptr, ptr %7, align 8
  %114 = getelementptr inbounds %struct.png_info_def, ptr %113, i32 0, i32 26
  %115 = load ptr, ptr %10, align 8
  call void @llvm.memcpy.p0.p0.i64(ptr align 8 %114, ptr align 2 %115, i64 10, i1 false)
  %116 = load i32, ptr %9, align 4
  %117 = icmp eq i32 %116, 0
  br i1 %117, label %118, label %119

118:                                              ; preds = %112
  store i32 1, ptr %9, align 4
  br label %119

119:                                              ; preds = %118, %112
  br label %120

120:                                              ; preds = %119, %54
  %121 = load i32, ptr %9, align 4
  %122 = trunc i32 %121 to i16
  %123 = load ptr, ptr %7, align 8
  %124 = getelementptr inbounds %struct.png_info_def, ptr %123, i32 0, i32 6
  store i16 %122, ptr %124, align 2
  %125 = load i32, ptr %9, align 4
  %126 = icmp ne i32 %125, 0
  br i1 %126, label %127, label %136

127:                                              ; preds = %120
  %128 = load ptr, ptr %7, align 8
  %129 = getelementptr inbounds %struct.png_info_def, ptr %128, i32 0, i32 45
  %130 = load i32, ptr %129, align 4
  %131 = or i32 %130, 8192
  store i32 %131, ptr %129, align 4
  %132 = load ptr, ptr %7, align 8
  %133 = getelementptr inbounds %struct.png_info_def, ptr %132, i32 0, i32 2
  %134 = load i32, ptr %133, align 8
  %135 = or i32 %134, 16
  store i32 %135, ptr %133, align 8
  br label %136

136:                                              ; preds = %127, %120, %17
  ret void
}