; Function Attrs: nounwind uwtable
define void @png_set_tRNS(ptr noalias noundef %0, ptr noalias noundef %1, ptr noundef readonly %2, i32 noundef %3, ptr noundef readonly %4) local_unnamed_addr #2 {
  %6 = icmp eq ptr %0, null
  %7 = icmp eq ptr %1, null
  %or.cond = or i1 %6, %7
  br i1 %or.cond, label %68, label %8

8:                                                ; preds = %5
  %.not = icmp eq ptr %2, null
  br i1 %.not, label %24, label %9

9:                                                ; preds = %8
  tail call void @png_free_data(ptr noundef nonnull %0, ptr noundef nonnull %1, i32 noundef 8192, i32 noundef 0) #12
  %10 = add i32 %3, -1
  %or.cond3 = icmp ult i32 %10, 256
  br i1 %or.cond3, label %11, label %._crit_edge

._crit_edge:                                      ; preds = %9
  %.phi.trans.insert = getelementptr inbounds i8, ptr %1, i64 184
  %.pre = load ptr, ptr %.phi.trans.insert, align 8
  br label %21

11:                                               ; preds = %9
  %12 = tail call noalias ptr @png_malloc(ptr noundef nonnull %0, i64 noundef 256) #12
  %13 = getelementptr inbounds i8, ptr %1, i64 184
  store ptr %12, ptr %13, align 8
  %14 = zext nneg i32 %3 to i64
  tail call void @llvm.memcpy.p0.p0.i64(ptr align 1 %12, ptr nonnull align 1 %2, i64 %14, i1 false)
  %15 = getelementptr inbounds i8, ptr %1, i64 300
  %16 = load i32, ptr %15, align 4
  %17 = or i32 %16, 8192
  store i32 %17, ptr %15, align 4
  %18 = getelementptr inbounds i8, ptr %1, i64 8
  %19 = load i32, ptr %18, align 8
  %20 = or i32 %19, 16
  store i32 %20, ptr %18, align 8
  br label %21

21:                                               ; preds = %._crit_edge, %11
  %22 = phi ptr [ %.pre, %._crit_edge ], [ %12, %11 ]
  %23 = getelementptr inbounds i8, ptr %0, i64 744
  store ptr %22, ptr %23, align 8
  br label %24

24:                                               ; preds = %21, %8
  %.not47 = icmp eq ptr %4, null
  br i1 %.not47, label %58, label %25

25:                                               ; preds = %24
  %26 = getelementptr inbounds i8, ptr %1, i64 36
  %27 = load i8, ptr %26, align 4
  %28 = icmp ult i8 %27, 16
  br i1 %28, label %29, label %.thread49

29:                                               ; preds = %25
  %30 = zext nneg i8 %27 to i32
  %notmask = shl nsw i32 -1, %30
  %31 = xor i32 %notmask, -1
  %32 = getelementptr inbounds i8, ptr %1, i64 37
  %33 = load i8, ptr %32, align 1
  switch i8 %33, label %.thread49 [
    i8 0, label %34
    i8 2, label %39
  ]

34:                                               ; preds = %29
  %35 = getelementptr inbounds i8, ptr %4, i64 8
  %36 = load i16, ptr %35, align 2
  %37 = zext i16 %36 to i32
  %38 = icmp ugt i32 %37, %31
  br i1 %38, label %54, label %.thread49

39:                                               ; preds = %29
  %40 = getelementptr inbounds i8, ptr %4, i64 2
  %41 = load i16, ptr %40, align 2
  %42 = zext i16 %41 to i32
  %43 = icmp ugt i32 %42, %31
  br i1 %43, label %54, label %44

44:                                               ; preds = %39
  %45 = getelementptr inbounds i8, ptr %4, i64 4
  %46 = load i16, ptr %45, align 2
  %47 = zext i16 %46 to i32
  %48 = icmp ugt i32 %47, %31
  br i1 %48, label %54, label %49

49:                                               ; preds = %44
  %50 = getelementptr inbounds i8, ptr %4, i64 6
  %51 = load i16, ptr %50, align 2
  %52 = zext i16 %51 to i32
  %53 = icmp ugt i32 %52, %31
  br i1 %53, label %54, label %.thread49

54:                                               ; preds = %49, %44, %39, %34
  tail call void @png_warning(ptr noundef nonnull %0, ptr noundef nonnull @.str.39) #12
  br label %.thread49

.thread49:                                        ; preds = %29, %25, %54, %49, %34
  %55 = getelementptr inbounds i8, ptr %1, i64 192
  tail call void @llvm.memcpy.p0.p0.i64(ptr noundef nonnull align 8 dereferenceable(10) %55, ptr noundef nonnull align 2 dereferenceable(10) %4, i64 10, i1 false)
  %spec.store.select = tail call i32 @llvm.umax.i32(i32 %3, i32 1)
  %56 = trunc i32 %spec.store.select to i16
  %57 = getelementptr inbounds i8, ptr %1, i64 34
  store i16 %56, ptr %57, align 2
  br label %61

58:                                               ; preds = %24
  %59 = trunc i32 %3 to i16
  %60 = getelementptr inbounds i8, ptr %1, i64 34
  store i16 %59, ptr %60, align 2
  %.not48 = icmp eq i32 %3, 0
  br i1 %.not48, label %68, label %61

61:                                               ; preds = %.thread49, %58
  %62 = getelementptr inbounds i8, ptr %1, i64 300
  %63 = load i32, ptr %62, align 4
  %64 = or i32 %63, 8192
  store i32 %64, ptr %62, align 4
  %65 = getelementptr inbounds i8, ptr %1, i64 8
  %66 = load i32, ptr %65, align 8
  %67 = or i32 %66, 16
  store i32 %67, ptr %65, align 8
  br label %68

68:                                               ; preds = %5, %61, %58
  ret void
}